target datalayout = "e-m:e-p270:32:32-p271:32:32-p272:64:64-i64:64-i128:128-f80:128-n8:16:32:64-S128"
target triple = "x86_64-pc-linux-gnu"

%struct.SDL_HIDAPI_Device = type { ptr, ptr, ptr, ptr, i16, i16, i16, ptr, %struct.SDL_GUID, i32, i32, i32, i32, i16, i16, i8, i32, i32, i32, ptr, ptr, ptr, ptr, %struct.SDL_AtomicInt, i32, ptr, i8, i8, i8, ptr, i32, ptr, ptr }
%struct.SDL_GUID = type { [16 x i8] }
%struct.SDL_AtomicInt = type { i32 }

@.str.16 = private unnamed_addr constant [32 x i8] c"That operation is not supported\00", align 1

; Function Attrs: nounwind uwtable
define internal zeroext i1 @HIDAPI_DriverLg4ff_SendLedCommand(ptr noundef %0, i8 noundef zeroext %1) #0 {
  %3 = alloca ptr, align 8
  %4 = alloca i8, align 1
  %5 = alloca [7 x i8], align 1
  %6 = alloca i8, align 1
  store ptr %0, ptr %3, align 8
  store i8 %1, ptr %4, align 1
  call void @llvm.lifetime.start.p0(i64 7, ptr %5) #5
  call void @llvm.lifetime.start.p0(i64 1, ptr %6) #5
  store i8 0, ptr %6, align 1
  %7 = load i8, ptr %4, align 1
  %8 = zext i8 %7 to i32
  switch i32 %8, label %15 [
    i32 0, label %9
    i32 1, label %10
    i32 2, label %11
    i32 3, label %12
    i32 4, label %13
    i32 5, label %14
  ]

9:                                                ; preds = %2
  store i8 0, ptr %6, align 1
  br label %19

10:                                               ; preds = %2
  store i8 1, ptr %6, align 1
  br label %19

11:                                               ; preds = %2
  store i8 3, ptr %6, align 1
  br label %19

12:                                               ; preds = %2
  store i8 7, ptr %6, align 1
  br label %19

13:                                               ; preds = %2
  store i8 15, ptr %6, align 1
  br label %19

14:                                               ; preds = %2
  store i8 31, ptr %6, align 1
  br label %19

15:                                               ; preds = %2
  br label %16

16:                                               ; preds = %15
  br label %17

17:                                               ; preds = %16
  br label %18

18:                                               ; preds = %17
  br label %19

19:                                               ; preds = %18, %14, %13, %12, %11, %10, %9
  %20 = getelementptr inbounds [7 x i8], ptr %5, i64 0, i64 0
  store i8 -8, ptr %20, align 1
  %21 = getelementptr inbounds [7 x i8], ptr %5, i64 0, i64 1
  store i8 18, ptr %21, align 1
  %22 = load i8, ptr %6, align 1
  %23 = getelementptr inbounds [7 x i8], ptr %5, i64 0, i64 2
  store i8 %22, ptr %23, align 1
  %24 = getelementptr inbounds [7 x i8], ptr %5, i64 0, i64 3
  store i8 0, ptr %24, align 1
  %25 = getelementptr inbounds [7 x i8], ptr %5, i64 0, i64 4
  store i8 0, ptr %25, align 1
  %26 = getelementptr inbounds [7 x i8], ptr %5, i64 0, i64 5
  store i8 0, ptr %26, align 1
  %27 = getelementptr inbounds [7 x i8], ptr %5, i64 0, i64 6
  store i8 0, ptr %27, align 1
  %28 = load ptr, ptr %3, align 8
  %29 = getelementptr inbounds nuw %struct.SDL_HIDAPI_Device, ptr %28, i32 0, i32 22
  %30 = load ptr, ptr %29, align 8
  %31 = getelementptr inbounds [7 x i8], ptr %5, i64 0, i64 0
  %32 = call i32 @SDL_hid_write_REAL(ptr noundef %30, ptr noundef %31, i64 noundef 7)
  %33 = sext i32 %32 to i64
  %34 = icmp eq i64 %33, 7
  call void @llvm.lifetime.end.p0(i64 1, ptr %6) #5
  call void @llvm.lifetime.end.p0(i64 7, ptr %5) #5
  ret i1 %34
}

; Function Attrs: nounwind uwtable
define internal zeroext i1 @HIDAPI_DriverLg4ff_SetJoystickLED(ptr noundef %0, ptr noundef %1, i8 noundef zeroext %2, i8 noundef zeroext %3, i8 noundef zeroext %4) #0 {
  %6 = alloca i1, align 1
  %7 = alloca ptr, align 8
  %8 = alloca ptr, align 8
  %9 = alloca i8, align 1
  %10 = alloca i8, align 1
  %11 = alloca i8, align 1
  %12 = alloca i32, align 4
  %13 = alloca i32, align 4
  store ptr %0, ptr %7, align 8
  store ptr %1, ptr %8, align 8
  store i8 %2, ptr %9, align 1
  store i8 %3, ptr %10, align 1
  store i8 %4, ptr %11, align 1
  call void @llvm.lifetime.start.p0(i64 4, ptr %12) #5
  %14 = load i8, ptr %9, align 1
  %15 = zext i8 %14 to i32
  store i32 %15, ptr %12, align 4
  %16 = load ptr, ptr %7, align 8
  %17 = getelementptr inbounds nuw %struct.SDL_HIDAPI_Device, ptr %16, i32 0, i32 5
  %18 = load i16, ptr %17, align 2
  %19 = zext i16 %18 to i32
  %20 = icmp ne i32 %19, 49743
  br i1 %20, label %21, label %29

21:                                               ; preds = %5
  %22 = load ptr, ptr %7, align 8
  %23 = getelementptr inbounds nuw %struct.SDL_HIDAPI_Device, ptr %22, i32 0, i32 5
  %24 = load i16, ptr %23, align 2
  %25 = zext i16 %24 to i32
  %26 = icmp ne i32 %25, 49819
  br i1 %26, label %27, label %29

27:                                               ; preds = %21
  %28 = call zeroext i1 (ptr, ...) @SDL_SetError_REAL(ptr noundef @.str.16)
  store i1 %28, ptr %6, align 1
  store i32 1, ptr %13, align 4
  br label %52

29:                                               ; preds = %21, %5
  %30 = load i8, ptr %10, align 1
  %31 = zext i8 %30 to i32
  %32 = load i32, ptr %12, align 4
  %33 = icmp sgt i32 %31, %32
  br i1 %33, label %34, label %37

34:                                               ; preds = %29
  %35 = load i8, ptr %10, align 1
  %36 = zext i8 %35 to i32
  store i32 %36, ptr %12, align 4
  br label %37

37:                                               ; preds = %34, %29
  %38 = load i8, ptr %11, align 1
  %39 = zext i8 %38 to i32
  %40 = load i32, ptr %12, align 4
  %41 = icmp sgt i32 %39, %40
  br i1 %41, label %42, label %45

42:                                               ; preds = %37
  %43 = load i8, ptr %11, align 1
  %44 = zext i8 %43 to i32
  store i32 %44, ptr %12, align 4
  br label %45

45:                                               ; preds = %42, %37
  %46 = load ptr, ptr %7, align 8
  %47 = load i32, ptr %12, align 4
  %48 = mul nsw i32 5, %47
  %49 = sdiv i32 %48, 255
  %50 = trunc i32 %49 to i8
  %51 = call zeroext i1 @HIDAPI_DriverLg4ff_SendLedCommand(ptr noundef %46, i8 noundef zeroext %50)
  store i1 %51, ptr %6, align 1
  store i32 1, ptr %13, align 4
  br label %52

52:                                               ; preds = %45, %27
  call void @llvm.lifetime.end.p0(i64 4, ptr %12) #5
  %53 = load i1, ptr %6, align 1
  ret i1 %53
}

; Function Attrs: nounwind uwtable
define internal void @HIDAPI_DriverLg4ff_CloseJoystick(ptr noundef %0, ptr noundef %1) #0 {
  %3 = alloca ptr, align 8
  %4 = alloca ptr, align 8
  store ptr %0, ptr %3, align 8
  store ptr %1, ptr %4, align 8
  %5 = load ptr, ptr %3, align 8
  %6 = load ptr, ptr %4, align 8
  %7 = call zeroext i1 @HIDAPI_DriverLg4ff_SetJoystickLED(ptr noundef %5, ptr noundef %6, i8 noundef zeroext 0, i8 noundef zeroext 0, i8 noundef zeroext 0)
  ret void
}