; Function Attrs: nounwind uwtable
define internal void @HIDAPI_DriverLg4ff_CloseJoystick(ptr noundef readonly captures(none) %0, ptr readnone captures(none) %1) #0 {
  %3 = alloca [7 x i8], align 1
  %4 = getelementptr inbounds nuw i8, ptr %0, i64 34
  %5 = load i16, ptr %4, align 2
  switch i16 %5, label %6 [
    i16 -15793, label %8
    i16 -15717, label %8
  ]

6:                                                ; preds = %2
  %7 = tail call zeroext i1 (ptr, ...) @SDL_SetError_REAL(ptr noundef nonnull @.str.16) #8
  br label %HIDAPI_DriverLg4ff_SetJoystickLED.exit

8:                                                ; preds = %2, %2
  call void @llvm.lifetime.start.p0(i64 7, ptr nonnull %3) #8
  store i8 -8, ptr %3, align 1
  %9 = getelementptr inbounds nuw i8, ptr %3, i64 1
  store i8 18, ptr %9, align 1
  %10 = getelementptr inbounds nuw i8, ptr %3, i64 2
  store i8 0, ptr %10, align 1
  %11 = getelementptr inbounds nuw i8, ptr %3, i64 3
  %12 = getelementptr inbounds nuw i8, ptr %0, i64 128
  store i32 0, ptr %11, align 1
  %13 = load ptr, ptr %12, align 8
  %14 = call i32 @SDL_hid_write_REAL(ptr noundef %13, ptr noundef nonnull %3, i64 noundef 7) #8
  call void @llvm.lifetime.end.p0(i64 7, ptr nonnull %3) #8
  br label %HIDAPI_DriverLg4ff_SetJoystickLED.exit

HIDAPI_DriverLg4ff_SetJoystickLED.exit:           ; preds = %6, %8
  ret void
}